target datalayout = "e-m:e-p270:32:32-p271:32:32-p272:64:64-i64:64-i128:128-f80:128-n8:16:32:64-S128"
target triple = "x86_64-unknown-linux-gnu"

%struct.V9fsPath = type { i16, ptr }
%struct.V9fsState = type { %struct.anon, %struct.anon.0, ptr, ptr, %struct.FsContext, ptr, i32, i32, [128 x %struct.V9fsPDU], ptr, %struct.CoRwlock, i32, ptr, %struct.V9fsConf, %struct.stat, i64, %struct.qht, %struct.qht, %struct.qht, i64, i16, i64 }
%struct.anon = type { ptr }
%struct.anon.0 = type { ptr }
%struct.FsContext = type { i32, ptr, i32, ptr, %struct.ExtendedOps, ptr, ptr, i32, i32 }
%struct.ExtendedOps = type { ptr }
%struct.V9fsPDU = type { i32, i16, i8, i8, %struct.CoQueue, ptr, %struct.anon.2, i32 }
%struct.CoQueue = type { %struct.anon.1 }
%struct.anon.1 = type { ptr, ptr }
%struct.anon.2 = type { ptr, ptr }
%struct.CoRwlock = type { %struct.CoMutex, i32, %struct.anon.4 }
%struct.CoMutex = type { i32, ptr, %struct.anon.3, %struct.anon.3, i32, i32, ptr }
%struct.anon.3 = type { ptr }
%struct.anon.4 = type { ptr, ptr }
%struct.V9fsConf = type { ptr, ptr }
%struct.stat = type { i64, i64, i64, i32, i32, i32, i32, i64, i64, i64, i64, %struct.timespec, %struct.timespec, %struct.timespec, [3 x i64] }
%struct.timespec = type { i64, i64 }
%struct.qht = type { ptr, ptr, %struct.QemuMutex, i32 }
%struct.QemuMutex = type { %union.pthread_mutex_t, i8 }
%union.pthread_mutex_t = type { %struct.__pthread_mutex_s }
%struct.__pthread_mutex_s = type { i32, i32, i32, i32, i32, i16, i16, %struct.__pthread_internal_list }
%struct.__pthread_internal_list = type { ptr, ptr }
%struct._GHashTableIter = type { ptr, ptr, ptr, i32, i32, ptr }
%struct.V9fsFidState = type { i32, i32, %struct.V9fsPath, %union.V9fsFidOpenState, %union.V9fsFidOpenState, i32, i32, i32, i32, i8, %struct.anon.6, %struct.anon.7 }
%union.V9fsFidOpenState = type { %struct.V9fsDir }
%struct.V9fsDir = type { ptr, i32, %struct.CoMutex, %struct.QemuMutex }
%struct.anon.6 = type { ptr }
%struct.anon.7 = type { ptr }
%struct.V9fsString = type { i16, ptr }

@.str.55 = private unnamed_addr constant [5 x i8] c"%s%s\00", align 1

; Function Attrs: nounwind sspstrong uwtable
define dso_local void @v9fs_path_copy(ptr noundef %dst, ptr noundef %src) #0 {
entry:
  %dst.addr = alloca ptr, align 8
  %src.addr = alloca ptr, align 8
  store ptr %dst, ptr %dst.addr, align 8
  store ptr %src, ptr %src.addr, align 8
  %0 = load ptr, ptr %dst.addr, align 8
  call void @v9fs_path_free(ptr noundef %0)
  %1 = load ptr, ptr %src.addr, align 8
  %size = getelementptr inbounds %struct.V9fsPath, ptr %1, i32 0, i32 0
  %2 = load i16, ptr %size, align 8
  %3 = load ptr, ptr %dst.addr, align 8
  %size1 = getelementptr inbounds %struct.V9fsPath, ptr %3, i32 0, i32 0
  store i16 %2, ptr %size1, align 8
  %4 = load ptr, ptr %src.addr, align 8
  %data = getelementptr inbounds %struct.V9fsPath, ptr %4, i32 0, i32 1
  %5 = load ptr, ptr %data, align 8
  %6 = load ptr, ptr %src.addr, align 8
  %size2 = getelementptr inbounds %struct.V9fsPath, ptr %6, i32 0, i32 0
  %7 = load i16, ptr %size2, align 8
  %conv = zext i16 %7 to i32
  %call = call ptr @g_memdup(ptr noundef %5, i32 noundef %conv) #14
  %8 = load ptr, ptr %dst.addr, align 8
  %data3 = getelementptr inbounds %struct.V9fsPath, ptr %8, i32 0, i32 1
  store ptr %call, ptr %data3, align 8
  ret void
}

; Function Attrs: nounwind sspstrong uwtable
define dso_local void @v9fs_path_free(ptr noundef %path) #0 {
entry:
  %path.addr = alloca ptr, align 8
  store ptr %path, ptr %path.addr, align 8
  %0 = load ptr, ptr %path.addr, align 8
  %data = getelementptr inbounds %struct.V9fsPath, ptr %0, i32 0, i32 1
  %1 = load ptr, ptr %data, align 8
  call void @g_free(ptr noundef %1)
  %2 = load ptr, ptr %path.addr, align 8
  %data1 = getelementptr inbounds %struct.V9fsPath, ptr %2, i32 0, i32 1
  store ptr null, ptr %data1, align 8
  %3 = load ptr, ptr %path.addr, align 8
  %size = getelementptr inbounds %struct.V9fsPath, ptr %3, i32 0, i32 0
  store i16 0, ptr %size, align 8
  ret void
}

; Function Attrs: nounwind sspstrong uwtable
define internal void @v9fs_fix_path(ptr noundef %dst, ptr noundef %src, i32 noundef %len) #0 {
entry:
  %dst.addr = alloca ptr, align 8
  %src.addr = alloca ptr, align 8
  %len.addr = alloca i32, align 4
  %str = alloca %struct.V9fsPath, align 8
  store ptr %dst, ptr %dst.addr, align 8
  store ptr %src, ptr %src.addr, align 8
  store i32 %len, ptr %len.addr, align 4
  call void @v9fs_path_init(ptr noundef %str)
  %0 = load ptr, ptr %dst.addr, align 8
  call void @v9fs_path_copy(ptr noundef %str, ptr noundef %0)
  %1 = load ptr, ptr %dst.addr, align 8
  %2 = load ptr, ptr %src.addr, align 8
  %data = getelementptr inbounds %struct.V9fsPath, ptr %2, i32 0, i32 1
  %3 = load ptr, ptr %data, align 8
  %data1 = getelementptr inbounds %struct.V9fsPath, ptr %str, i32 0, i32 1
  %4 = load ptr, ptr %data1, align 8
  %5 = load i32, ptr %len.addr, align 4
  %idx.ext = sext i32 %5 to i64
  %add.ptr = getelementptr i8, ptr %4, i64 %idx.ext
  call void (ptr, ptr, ...) @v9fs_path_sprintf(ptr noundef %1, ptr noundef @.str.55, ptr noundef %3, ptr noundef %add.ptr)
  call void @v9fs_path_free(ptr noundef %str)
  ret void
}

; Function Attrs: nounwind sspstrong uwtable
define internal i32 @v9fs_path_is_ancestor(ptr noundef %s1, ptr noundef %s2) #0 {
entry:
  %retval = alloca i32, align 4
  %s1.addr = alloca ptr, align 8
  %s2.addr = alloca ptr, align 8
  store ptr %s1, ptr %s1.addr, align 8
  store ptr %s2, ptr %s2.addr, align 8
  %0 = load ptr, ptr %s1.addr, align 8
  %data = getelementptr inbounds %struct.V9fsPath, ptr %0, i32 0, i32 1
  %1 = load ptr, ptr %data, align 8
  %2 = load ptr, ptr %s2.addr, align 8
  %data1 = getelementptr inbounds %struct.V9fsPath, ptr %2, i32 0, i32 1
  %3 = load ptr, ptr %data1, align 8
  %4 = load ptr, ptr %s1.addr, align 8
  %size = getelementptr inbounds %struct.V9fsPath, ptr %4, i32 0, i32 0
  %5 = load i16, ptr %size, align 8
  %conv = zext i16 %5 to i32
  %sub = sub i32 %conv, 1
  %conv2 = sext i32 %sub to i64
  %call = call i32 @strncmp(ptr noundef %1, ptr noundef %3, i64 noundef %conv2) #18
  %tobool = icmp ne i32 %call, 0
  br i1 %tobool, label %if.end19, label %if.then

if.then:                                          ; preds = %entry
  %6 = load ptr, ptr %s2.addr, align 8
  %data3 = getelementptr inbounds %struct.V9fsPath, ptr %6, i32 0, i32 1
  %7 = load ptr, ptr %data3, align 8
  %8 = load ptr, ptr %s1.addr, align 8
  %size4 = getelementptr inbounds %struct.V9fsPath, ptr %8, i32 0, i32 0
  %9 = load i16, ptr %size4, align 8
  %conv5 = zext i16 %9 to i32
  %sub6 = sub i32 %conv5, 1
  %idxprom = sext i32 %sub6 to i64
  %arrayidx = getelementptr i8, ptr %7, i64 %idxprom
  %10 = load i8, ptr %arrayidx, align 1
  %conv7 = sext i8 %10 to i32
  %cmp = icmp eq i32 %conv7, 0
  br i1 %cmp, label %if.then18, label %lor.lhs.false

lor.lhs.false:                                    ; preds = %if.then
  %11 = load ptr, ptr %s2.addr, align 8
  %data9 = getelementptr inbounds %struct.V9fsPath, ptr %11, i32 0, i32 1
  %12 = load ptr, ptr %data9, align 8
  %13 = load ptr, ptr %s1.addr, align 8
  %size10 = getelementptr inbounds %struct.V9fsPath, ptr %13, i32 0, i32 0
  %14 = load i16, ptr %size10, align 8
  %conv11 = zext i16 %14 to i32
  %sub12 = sub i32 %conv11, 1
  %idxprom13 = sext i32 %sub12 to i64
  %arrayidx14 = getelementptr i8, ptr %12, i64 %idxprom13
  %15 = load i8, ptr %arrayidx14, align 1
  %conv15 = sext i8 %15 to i32
  %cmp16 = icmp eq i32 %conv15, 47
  br i1 %cmp16, label %if.then18, label %if.end

if.then18:                                        ; preds = %lor.lhs.false, %if.then
  store i32 1, ptr %retval, align 4
  br label %return

if.end:                                           ; preds = %lor.lhs.false
  br label %if.end19

if.end19:                                         ; preds = %if.end, %entry
  store i32 0, ptr %retval, align 4
  br label %return

return:                                           ; preds = %if.end19, %if.then18
  %16 = load i32, ptr %retval, align 4
  ret i32 %16
}

; Function Attrs: nounwind sspstrong uwtable
define dso_local void @v9fs_path_init(ptr noundef %path) #0 {
entry:
  %path.addr = alloca ptr, align 8
  store ptr %path, ptr %path.addr, align 8
  %0 = load ptr, ptr %path.addr, align 8
  %data = getelementptr inbounds %struct.V9fsPath, ptr %0, i32 0, i32 1
  store ptr null, ptr %data, align 8
  %1 = load ptr, ptr %path.addr, align 8
  %size = getelementptr inbounds %struct.V9fsPath, ptr %1, i32 0, i32 0
  store i16 0, ptr %size, align 8
  ret void
}

; Function Attrs: nounwind sspstrong uwtable
define internal i32 @v9fs_fix_fid_paths(ptr noundef %pdu, ptr noundef %olddir, ptr noundef %old_name, ptr noundef %newdir, ptr noundef %new_name) #0 {
entry:
  %pdu.addr = alloca ptr, align 8
  %olddir.addr = alloca ptr, align 8
  %old_name.addr = alloca ptr, align 8
  %newdir.addr = alloca ptr, align 8
  %new_name.addr = alloca ptr, align 8
  %tfidp = alloca ptr, align 8
  %oldpath = alloca %struct.V9fsPath, align 8
  %newpath = alloca %struct.V9fsPath, align 8
  %s = alloca ptr, align 8
  %err = alloca i32, align 4
  %iter = alloca %struct._GHashTableIter, align 8
  %fid = alloca ptr, align 8
  store ptr %pdu, ptr %pdu.addr, align 8
  store ptr %olddir, ptr %olddir.addr, align 8
  store ptr %old_name, ptr %old_name.addr, align 8
  store ptr %newdir, ptr %newdir.addr, align 8
  store ptr %new_name, ptr %new_name.addr, align 8
  %0 = load ptr, ptr %pdu.addr, align 8
  %s1 = getelementptr inbounds %struct.V9fsPDU, ptr %0, i32 0, i32 5
  %1 = load ptr, ptr %s1, align 8
  store ptr %1, ptr %s, align 8
  call void @v9fs_path_init(ptr noundef %oldpath)
  call void @v9fs_path_init(ptr noundef %newpath)
  %2 = load ptr, ptr %pdu.addr, align 8
  %3 = load ptr, ptr %olddir.addr, align 8
  %4 = load ptr, ptr %old_name.addr, align 8
  %data = getelementptr inbounds %struct.V9fsString, ptr %4, i32 0, i32 1
  %5 = load ptr, ptr %data, align 8
  %call = call i32 @v9fs_co_name_to_path(ptr noundef %2, ptr noundef %3, ptr noundef %5, ptr noundef %oldpath)
  store i32 %call, ptr %err, align 4
  %6 = load i32, ptr %err, align 4
  %cmp = icmp slt i32 %6, 0
  br i1 %cmp, label %if.then, label %if.end

if.then:                                          ; preds = %entry
  br label %out

if.end:                                           ; preds = %entry
  %7 = load ptr, ptr %pdu.addr, align 8
  %8 = load ptr, ptr %newdir.addr, align 8
  %9 = load ptr, ptr %new_name.addr, align 8
  %data2 = getelementptr inbounds %struct.V9fsString, ptr %9, i32 0, i32 1
  %10 = load ptr, ptr %data2, align 8
  %call3 = call i32 @v9fs_co_name_to_path(ptr noundef %7, ptr noundef %8, ptr noundef %10, ptr noundef %newpath)
  store i32 %call3, ptr %err, align 4
  %11 = load i32, ptr %err, align 4
  %cmp4 = icmp slt i32 %11, 0
  br i1 %cmp4, label %if.then5, label %if.end6

if.then5:                                         ; preds = %if.end
  br label %out

if.end6:                                          ; preds = %if.end
  %12 = load ptr, ptr %s, align 8
  %fids = getelementptr inbounds %struct.V9fsState, ptr %12, i32 0, i32 2
  %13 = load ptr, ptr %fids, align 8
  call void @g_hash_table_iter_init(ptr noundef %iter, ptr noundef %13)
  br label %while.cond

while.cond:                                       ; preds = %if.end14, %if.end6
  %call7 = call i32 @g_hash_table_iter_next(ptr noundef %iter, ptr noundef %fid, ptr noundef %tfidp)
  %tobool = icmp ne i32 %call7, 0
  br i1 %tobool, label %while.body, label %while.end

while.body:                                       ; preds = %while.cond
  %14 = load ptr, ptr %tfidp, align 8
  %path = getelementptr inbounds %struct.V9fsFidState, ptr %14, i32 0, i32 2
  %call8 = call i32 @v9fs_path_is_ancestor(ptr noundef %oldpath, ptr noundef %path)
  %tobool9 = icmp ne i32 %call8, 0
  br i1 %tobool9, label %if.then10, label %if.end14

if.then10:                                        ; preds = %while.body
  %15 = load ptr, ptr %tfidp, align 8
  %path11 = getelementptr inbounds %struct.V9fsFidState, ptr %15, i32 0, i32 2
  %data12 = getelementptr inbounds %struct.V9fsPath, ptr %oldpath, i32 0, i32 1
  %16 = load ptr, ptr %data12, align 8
  %call13 = call i64 @strlen(ptr noundef %16) #18
  %conv = trunc i64 %call13 to i32
  call void @v9fs_fix_path(ptr noundef %path11, ptr noundef %newpath, i32 noundef %conv)
  br label %if.end14

if.end14:                                         ; preds = %if.then10, %while.body
  br label %while.cond, !llvm.loop !27

while.end:                                        ; preds = %while.cond
  br label %out

out:                                              ; preds = %while.end, %if.then5, %if.then
  call void @v9fs_path_free(ptr noundef %oldpath)
  call void @v9fs_path_free(ptr noundef %newpath)
  %17 = load i32, ptr %err, align 4
  ret i32 %17
}