; Function Attrs: nounwind sspstrong uwtable
define internal i32 @v9fs_fix_fid_paths(ptr noundef %pdu, ptr noundef %olddir, ptr noundef readonly captures(none) %old_name, ptr noundef %newdir, ptr noundef readonly captures(none) %new_name) #0 {
entry:
  %tfidp = alloca ptr, align 8
  %oldpath = alloca %struct.V9fsPath, align 8
  %newpath = alloca %struct.V9fsPath, align 8
  %iter = alloca %struct._GHashTableIter, align 8
  %fid = alloca ptr, align 8
  %s1 = getelementptr inbounds nuw i8, ptr %pdu, i64 24
  %0 = load ptr, ptr %s1, align 8
  %data.i = getelementptr inbounds nuw i8, ptr %oldpath, i64 8
  store ptr null, ptr %data.i, align 8
  store i16 0, ptr %oldpath, align 8
  %data.i6 = getelementptr inbounds nuw i8, ptr %newpath, i64 8
  store ptr null, ptr %data.i6, align 8
  store i16 0, ptr %newpath, align 8
  %data = getelementptr inbounds nuw i8, ptr %old_name, i64 8
  %1 = load ptr, ptr %data, align 8
  %call = call i32 @v9fs_co_name_to_path(ptr noundef %pdu, ptr noundef %olddir, ptr noundef %1, ptr noundef nonnull %oldpath) #24
  %cmp = icmp slt i32 %call, 0
  br i1 %cmp, label %out, label %if.end

if.end:                                           ; preds = %entry
  %data2 = getelementptr inbounds nuw i8, ptr %new_name, i64 8
  %2 = load ptr, ptr %data2, align 8
  %call3 = call i32 @v9fs_co_name_to_path(ptr noundef nonnull %pdu, ptr noundef %newdir, ptr noundef %2, ptr noundef nonnull %newpath) #24
  %cmp4 = icmp slt i32 %call3, 0
  br i1 %cmp4, label %out, label %if.end6

if.end6:                                          ; preds = %if.end
  %fids = getelementptr inbounds nuw i8, ptr %0, i64 16
  %3 = load ptr, ptr %fids, align 8
  call void @g_hash_table_iter_init(ptr noundef nonnull %iter, ptr noundef %3) #24
  %call712 = call i32 @g_hash_table_iter_next(ptr noundef nonnull %iter, ptr noundef nonnull %fid, ptr noundef nonnull %tfidp) #24
  %tobool.not13 = icmp eq i32 %call712, 0
  br i1 %tobool.not13, label %out, label %while.body

while.body:                                       ; preds = %if.end6, %if.end14
  %4 = load ptr, ptr %tfidp, align 8
  %path = getelementptr inbounds nuw i8, ptr %4, i64 8
  %oldpath.val = load i16, ptr %oldpath, align 8
  %oldpath.val5 = load ptr, ptr %data.i, align 8
  %5 = getelementptr i8, ptr %4, i64 16
  %path.val = load ptr, ptr %5, align 8
  %conv.i = zext i16 %oldpath.val to i64
  %sub.i = add nsw i64 %conv.i, -1
  %call.i = call i32 @strncmp(ptr noundef readonly %oldpath.val5, ptr noundef readonly %path.val, i64 noundef %sub.i) #29
  %tobool.not.i = icmp eq i32 %call.i, 0
  br i1 %tobool.not.i, label %v9fs_path_is_ancestor.exit, label %if.end14

v9fs_path_is_ancestor.exit:                       ; preds = %while.body
  %arrayidx.i = getelementptr i8, ptr %path.val, i64 %sub.i
  %6 = load i8, ptr %arrayidx.i, align 1
  switch i8 %6, label %if.end14 [
    i8 47, label %if.then10
    i8 0, label %if.then10
  ]

if.then10:                                        ; preds = %v9fs_path_is_ancestor.exit, %v9fs_path_is_ancestor.exit
  %call13 = call i64 @strlen(ptr noundef nonnull dereferenceable(1) %oldpath.val5) #29
  call void @g_free(ptr noundef null) #24
  %7 = load i16, ptr %path, align 8
  %8 = load ptr, ptr %5, align 8
  %conv.i.i = zext i16 %7 to i32
  %call.i.i = call ptr @g_memdup(ptr noundef %8, i32 noundef %conv.i.i) #26
  %9 = load ptr, ptr %data.i6, align 8
  %sext = shl i64 %call13, 32
  %idx.ext.i = ashr exact i64 %sext, 32
  %add.ptr.i = getelementptr i8, ptr %call.i.i, i64 %idx.ext.i
  call void (ptr, ptr, ...) @v9fs_path_sprintf(ptr noundef nonnull %path, ptr noundef nonnull @.str.55, ptr noundef %9, ptr noundef %add.ptr.i)
  call void @g_free(ptr noundef %call.i.i) #24
  br label %if.end14

if.end14:                                         ; preds = %v9fs_path_is_ancestor.exit, %while.body, %if.then10
  %call7 = call i32 @g_hash_table_iter_next(ptr noundef nonnull %iter, ptr noundef nonnull %fid, ptr noundef nonnull %tfidp) #24
  %tobool.not = icmp eq i32 %call7, 0
  br i1 %tobool.not, label %out, label %while.body, !llvm.loop !37

out:                                              ; preds = %if.end14, %if.end6, %if.end, %entry
  %err.0 = phi i32 [ %call, %entry ], [ %call3, %if.end ], [ %call3, %if.end6 ], [ %call3, %if.end14 ]
  %10 = load ptr, ptr %data.i, align 8
  call void @g_free(ptr noundef %10) #24
  store ptr null, ptr %data.i, align 8
  store i16 0, ptr %oldpath, align 8
  %11 = load ptr, ptr %data.i6, align 8
  call void @g_free(ptr noundef %11) #24
  ret i32 %err.0
}